Certificate:
    Data:
        Version: 3 (0x2)
        Serial Number: 1 (0x1)
        Signature Algorithm: sha1WithRSAEncryption
        Issuer: C=FR, ST=Alsace, L=Strasbourg,
        Validity
            Not Before: Apr 27 10:31:18 2012 GMT
            Not After : Apr 25 10:31:18 2022 GMT
        Subject: C=FR, ST=Alsace
        Subject Public Key Info:
            Public Key Algorithm: rsaEncryption
                Public-Key: (4096 bit)
                Modulus:
                    00:dd:6d:bd:f8:80:fa:d7:de:1b:1f:a7:a3:2e:b2:
                    02:e2:16:f6:52:0a:3c:bf:a6:42:f8:ca:dc:93:67:
                    4d:60:c3:4f:8d:c3:8a:00:1b:f1:c4:4b:41:6a:69:...
                Exponent: 65537 (0x10001)
        X509v3 extensions:
            X509v3 Basic Constraints: 
                CA:FALSE
            Netscape Comment: 
                OpenSSL Generated Certificate
            X509v3 Subject Key Identifier: 
                59:5F:C9:13:BA:1B:CC:B9:A8:41:4A:8A:49:79:6A:36:F6:7D:3E:D7
            X509v3 Authority Key Identifier: 
                keyid:23:6C:2D:3D:3E:29:5D:78:B8:6C:3E:AA:E2:BB:2E:1E:6C:87:F2:53
    Signature Algorithm: sha1WithRSAEncryption
        13:e7:02:45:3e:a7:ab:bd:b8:da:e7:ef:74:88:ac:62:d5:dd:
        10:56:d5:46:07:ec:fa:6a:80:0c:b9:62:be:aa:08:b4:be:0b:
        eb:9a:ef:68:b7:69:6f:4d:20:92:9d:18:63:7a:23:f4:48:87:
        6a:14:c3:91:98:1b:4e:08:59:3f:91:80:e9:f4:cf:fd:d5:bf:...
-----BEGIN CERTIFICATE-----
MIIGJzCCBA+gAwIBAgIBATANBgkqhkiG9w0BAQUFADCBsjELMAkGA1UEBhMCRlIx
DzANBgNVBAgMBkFsc2FjZTETMBEGA1UEBwwKU3RyYXNib3VyZzEYMBYGA1UECgwP
d3d3LmZyZWVsYW4ub3JnMRAwDgYDVQQLDAdmcmVlbGFuMS0wKwYDVQQDDCRGcmVl
hnx8SB3sVJZHeer8f/UQQwqbAO+Kdy70NmbSaqaVtp8jOxLiidWkwSyRTsuU6D8i
DiH5uEqBXExjrj0FslxcVKdVj5glVcSmkLwZKbEU1OKwleT/iXFhvooWhQ==
-----END CERTIFICATE-----
